; Function Attrs: nounwind uwtable
define internal range(i32 1, 4) i32 @trust_compat(ptr readnone captures(none) %0, ptr noundef %1, i32 noundef %2) #2 {
  %4 = tail call i32 @X509_check_purpose(ptr noundef %1, i32 noundef -1, i32 noundef 0) #6
  %.not = icmp eq i32 %4, 1
  br i1 %.not, label %5, label %13

5:                                                ; preds = %3
  %6 = and i32 %2, 4
  %7 = icmp eq i32 %6, 0
  br i1 %7, label %8, label %12

8:                                                ; preds = %5
  %9 = getelementptr inbounds nuw i8, ptr %1, i64 232
  %10 = load i32, ptr %9, align 8, !tbaa !49
  %11 = and i32 %10, 8192
  %.not3 = icmp eq i32 %11, 0
  br i1 %.not3, label %12, label %13

12:                                               ; preds = %8, %5
  br label %13

13:                                               ; preds = %8, %3, %12
  %.0 = phi i32 [ 3, %12 ], [ 3, %3 ], [ 1, %8 ]
  ret i32 %.0
}